; Function Attrs: mustprogress uwtable
define hidden noundef zeroext i1 @_ZN13hilbert_basis8add_goalENS_8offset_tE(ptr noundef nonnull align 8 dereferenceable(127) %this, i32 %idx.coerce) local_unnamed_addr #3 align 2 {
entry:
  %ref.tmp.i = alloca %"class.hilbert_basis::values", align 8
  %v = alloca %"class.hilbert_basis::values", align 8
  %m_ineqs.i = getelementptr inbounds i8, ptr %this, i64 8
  %0 = load ptr, ptr %m_ineqs.i, align 8
  %cmp.i.i = icmp eq ptr %0, null
  br i1 %cmp.i.i, label %_ZNK13hilbert_basis3vecENS_8offset_tE.exit.thread, label %if.end.i.i.i

_ZNK13hilbert_basis3vecENS_8offset_tE.exit.thread: ; preds = %entry
  %m_store.i12 = getelementptr inbounds i8, ptr %this, i64 24
  %1 = load ptr, ptr %m_store.i12, align 8
  %idx.ext.i13 = zext i32 %idx.coerce to i64
  %add.ptr.i14 = getelementptr inbounds %class.checked_int64, ptr %1, i64 %idx.ext.i13
  store ptr %add.ptr.i14, ptr %v, align 8
  call void @llvm.lifetime.start.p0(i64 8, ptr nonnull %ref.tmp.i)
  br label %_ZNK13hilbert_basis3vecENS_8offset_tE.exit.i

if.end.i.i.i:                                     ; preds = %entry
  %arrayidx.i.i = getelementptr inbounds i8, ptr %0, i64 -4
  %2 = load i32, ptr %arrayidx.i.i, align 4
  %3 = zext i32 %2 to i64
  %m_store.i = getelementptr inbounds i8, ptr %this, i64 24
  %4 = load ptr, ptr %m_store.i, align 8
  %idx.ext.i = zext i32 %idx.coerce to i64
  %add.ptr.i = getelementptr inbounds %class.checked_int64, ptr %4, i64 %idx.ext.i
  %add.ptr.i.i = getelementptr inbounds %class.checked_int64, ptr %add.ptr.i, i64 %3
  store ptr %add.ptr.i.i, ptr %v, align 8
  call void @llvm.lifetime.start.p0(i64 8, ptr nonnull %ref.tmp.i)
  br label %_ZNK13hilbert_basis3vecENS_8offset_tE.exit.i

_ZNK13hilbert_basis3vecENS_8offset_tE.exit.i:     ; preds = %_ZNK13hilbert_basis3vecENS_8offset_tE.exit.thread, %if.end.i.i.i
  %add.ptr.i17 = phi ptr [ %add.ptr.i, %if.end.i.i.i ], [ %add.ptr.i14, %_ZNK13hilbert_basis3vecENS_8offset_tE.exit.thread ]
  %retval.0.i.i.i = phi i64 [ %3, %if.end.i.i.i ], [ 0, %_ZNK13hilbert_basis3vecENS_8offset_tE.exit.thread ]
  %m_index.i18 = getelementptr inbounds i8, ptr %this, i64 104
  %5 = load ptr, ptr %m_index.i18, align 8
  %add.ptr.i.i.i = getelementptr inbounds %class.checked_int64, ptr %add.ptr.i17, i64 %retval.0.i.i.i
  store ptr %add.ptr.i.i.i, ptr %ref.tmp.i, align 8
  %call6.i = call noundef zeroext i1 @_ZN13hilbert_basis5index4findENS_8offset_tERKNS_6valuesE(ptr noundef nonnull align 8 dereferenceable(1340) %5, i32 %idx.coerce, ptr noundef nonnull align 8 dereferenceable(8) %ref.tmp.i)
  br i1 %call6.i, label %_ZN13hilbert_basis11is_subsumedENS_8offset_tE.exit.thread, label %if.end

_ZN13hilbert_basis11is_subsumedENS_8offset_tE.exit.thread: ; preds = %_ZNK13hilbert_basis3vecENS_8offset_tE.exit.i
  %m_stats.i = getelementptr inbounds i8, ptr %this, i64 88
  %6 = load i32, ptr %m_stats.i, align 8
  %inc.i = add i32 %6, 1
  store i32 %inc.i, ptr %m_stats.i, align 8
  call void @llvm.lifetime.end.p0(i64 8, ptr nonnull %ref.tmp.i)
  br label %return

if.end:                                           ; preds = %_ZNK13hilbert_basis3vecENS_8offset_tE.exit.i
  call void @llvm.lifetime.end.p0(i64 8, ptr nonnull %ref.tmp.i)
  %7 = load ptr, ptr %m_index.i18, align 8
  call void @_ZN13hilbert_basis5index6insertENS_8offset_tERKNS_6valuesE(ptr noundef nonnull align 8 dereferenceable(1340) %7, i32 %idx.coerce, ptr noundef nonnull align 8 dereferenceable(8) %v)
  %8 = load ptr, ptr %v, align 8
  %arrayidx.i = getelementptr inbounds i8, ptr %8, i64 -8
  %9 = load i64, ptr %arrayidx.i, align 8
  %cmp.i = icmp eq i64 %9, 0
  br i1 %cmp.i, label %if.then11, label %if.else

if.then11:                                        ; preds = %if.end
  %m_zero = getelementptr inbounds i8, ptr %this, i64 64
  %10 = load ptr, ptr %m_zero, align 8
  %cmp.i2 = icmp eq ptr %10, null
  br i1 %cmp.i2, label %if.then.i7, label %lor.lhs.false.i

lor.lhs.false.i:                                  ; preds = %if.then11
  %arrayidx.i3 = getelementptr inbounds i8, ptr %10, i64 -4
  %11 = load i32, ptr %arrayidx.i3, align 4
  %arrayidx4.i = getelementptr inbounds i8, ptr %10, i64 -8
  %12 = load i32, ptr %arrayidx4.i, align 4
  %cmp5.i = icmp eq i32 %11, %12
  br i1 %cmp5.i, label %if.then.i7, label %_ZN6vectorIN13hilbert_basis8offset_tELb0EjE9push_backERKS1_.exit

if.then.i7:                                       ; preds = %lor.lhs.false.i, %if.then11
  call void @_ZN6vectorIN13hilbert_basis8offset_tELb0EjE13expand_vectorEv(ptr noundef nonnull align 8 dereferenceable(8) %m_zero)
  %.pre.i = load ptr, ptr %m_zero, align 8
  %arrayidx8.phi.trans.insert.i = getelementptr inbounds i8, ptr %.pre.i, i64 -4
  %.pre1.i = load i32, ptr %arrayidx8.phi.trans.insert.i, align 4
  br label %_ZN6vectorIN13hilbert_basis8offset_tELb0EjE9push_backERKS1_.exit

_ZN6vectorIN13hilbert_basis8offset_tELb0EjE9push_backERKS1_.exit: ; preds = %lor.lhs.false.i, %if.then.i7
  %13 = phi i32 [ %.pre1.i, %if.then.i7 ], [ %11, %lor.lhs.false.i ]
  %14 = phi ptr [ %.pre.i, %if.then.i7 ], [ %10, %lor.lhs.false.i ]
  %idx.ext.i4 = zext i32 %13 to i64
  %add.ptr.i5 = getelementptr inbounds %"struct.hilbert_basis::offset_t", ptr %14, i64 %idx.ext.i4
  store i32 %idx.coerce, ptr %add.ptr.i5, align 4
  %15 = load ptr, ptr %m_zero, align 8
  %arrayidx10.i = getelementptr inbounds i8, ptr %15, i64 -4
  %16 = load i32, ptr %arrayidx10.i, align 4
  %inc.i6 = add i32 %16, 1
  store i32 %inc.i6, ptr %arrayidx10.i, align 4
  br label %return

if.else:                                          ; preds = %if.end
  %m_passive = getelementptr inbounds i8, ptr %this, i64 72
  %17 = load ptr, ptr %m_passive, align 8
  call void @_ZN13hilbert_basis7passive6insertENS_8offset_tE(ptr noundef nonnull align 8 dereferenceable(64) %17, i32 %idx.coerce)
  br label %return

return:                                           ; preds = %_ZN13hilbert_basis11is_subsumedENS_8offset_tE.exit.thread, %_ZN6vectorIN13hilbert_basis8offset_tELb0EjE9push_backERKS1_.exit, %if.else
  %retval.0 = xor i1 %call6.i, true
  ret i1 %retval.0
}